; Function Attrs: mustprogress uwtable
define void @_ZN4toku12lock_request11kill_waiterEv(ptr noundef nonnull align 8 dereferenceable(224) %0) local_unnamed_addr #0 align 2 {
  tail call void @_ZN4toku12lock_request25remove_from_lock_requestsEv(ptr noundef nonnull align 8 dereferenceable(224) %0)
  %2 = getelementptr inbounds nuw i8, ptr %0, i64 120
  store i32 -30994, ptr %2, align 8, !tbaa !73
  %3 = getelementptr inbounds nuw i8, ptr %0, i64 124
  store i32 3, ptr %3, align 4, !tbaa !40
  %4 = getelementptr inbounds nuw i8, ptr %0, i64 128
  %5 = load ptr, ptr %4, align 8, !tbaa !34
  %6 = load ptr, ptr %5, align 8, !tbaa !32
  %7 = getelementptr inbounds nuw i8, ptr %6, i64 40
  %8 = load ptr, ptr %7, align 8
  tail call void %8(ptr noundef nonnull align 8 dereferenceable(8) %5)
  ret void
}